target datalayout = "e-m:e-p270:32:32-p271:32:32-p272:64:64-i64:64-i128:128-f80:128-n8:16:32:64-S128"
target triple = "x86_64-pc-linux-gnu"

%"struct.arrow::TypedChunkLocation.4" = type { i32, i32 }
%"class.std::vector" = type { %"struct.std::_Vector_base" }
%"struct.std::_Vector_base" = type { %"struct.std::_Vector_base<long, std::allocator<long>>::_Vector_impl" }
%"struct.std::_Vector_base<long, std::allocator<long>>::_Vector_impl" = type { %"struct.std::_Vector_base<long, std::allocator<long>>::_Vector_impl_data" }
%"struct.std::_Vector_base<long, std::allocator<long>>::_Vector_impl_data" = type { ptr, ptr, ptr }
%"class.arrow::ChunkResolver" = type <{ %"class.std::vector", %"struct.std::atomic", [4 x i8] }>
%"struct.std::atomic" = type { %"struct.std::__atomic_base" }
%"struct.std::__atomic_base" = type { i32 }

@_ZN5arrow18TypedChunkLocationIjEC1Ejj = weak_odr unnamed_addr alias void (ptr, i32, i32), ptr @_ZN5arrow18TypedChunkLocationIjEC2Ejj

; Function Attrs: inlinehint mustprogress nounwind uwtable
define linkonce_odr noundef i32 @_ZN5arrow13ChunkResolver6BisectEmPKmjj(i64 noundef %0, ptr noundef %1, i32 noundef %2, i32 noundef %3) #7 comdat align 2 {
  %5 = alloca i64, align 8
  %6 = alloca ptr, align 8
  %7 = alloca i32, align 4
  %8 = alloca i32, align 4
  %9 = alloca i32, align 4
  %10 = alloca i32, align 4
  %11 = alloca i32, align 4
  store i64 %0, ptr %5, align 8, !tbaa !43
  store ptr %1, ptr %6, align 8, !tbaa !57
  store i32 %2, ptr %7, align 4, !tbaa !8
  store i32 %3, ptr %8, align 4, !tbaa !8
  call void @llvm.lifetime.start.p0(i64 4, ptr %9) #12
  %12 = load i32, ptr %8, align 4, !tbaa !8
  %13 = load i32, ptr %7, align 4, !tbaa !8
  %14 = sub i32 %12, %13
  store i32 %14, ptr %9, align 4, !tbaa !8
  br label %15

15:                                               ; preds = %36, %4
  call void @llvm.lifetime.start.p0(i64 4, ptr %10) #12
  %16 = load i32, ptr %9, align 4, !tbaa !8
  %17 = lshr i32 %16, 1
  store i32 %17, ptr %10, align 4, !tbaa !8
  call void @llvm.lifetime.start.p0(i64 4, ptr %11) #12
  %18 = load i32, ptr %7, align 4, !tbaa !8
  %19 = load i32, ptr %10, align 4, !tbaa !8
  %20 = add i32 %18, %19
  store i32 %20, ptr %11, align 4, !tbaa !8
  %21 = load i64, ptr %5, align 8, !tbaa !43
  %22 = load ptr, ptr %6, align 8, !tbaa !57
  %23 = load i32, ptr %11, align 4, !tbaa !8
  %24 = zext i32 %23 to i64
  %25 = getelementptr inbounds nuw i64, ptr %22, i64 %24
  %26 = load i64, ptr %25, align 8, !tbaa !43
  %27 = icmp uge i64 %21, %26
  br i1 %27, label %28, label %33

28:                                               ; preds = %15
  %29 = load i32, ptr %11, align 4, !tbaa !8
  store i32 %29, ptr %7, align 4, !tbaa !8
  %30 = load i32, ptr %10, align 4, !tbaa !8
  %31 = load i32, ptr %9, align 4, !tbaa !8
  %32 = sub i32 %31, %30
  store i32 %32, ptr %9, align 4, !tbaa !8
  br label %35

33:                                               ; preds = %15
  %34 = load i32, ptr %10, align 4, !tbaa !8
  store i32 %34, ptr %9, align 4, !tbaa !8
  br label %35

35:                                               ; preds = %33, %28
  call void @llvm.lifetime.end.p0(i64 4, ptr %11) #12
  call void @llvm.lifetime.end.p0(i64 4, ptr %10) #12
  br label %36

36:                                               ; preds = %35
  %37 = load i32, ptr %9, align 4, !tbaa !8
  %38 = icmp ugt i32 %37, 1
  br i1 %38, label %15, label %39, !llvm.loop !204

39:                                               ; preds = %36
  %40 = load i32, ptr %7, align 4, !tbaa !8
  call void @llvm.lifetime.end.p0(i64 4, ptr %9) #12
  ret i32 %40
}

; Function Attrs: inlinehint mustprogress uwtable
define internal i64 @_ZN5arrow12_GLOBAL__N_116ResolveOneInlineIjEENS_18TypedChunkLocationIT_EEjPKmS3_ii(i32 noundef %0, ptr noundef %1, i32 noundef %2, i32 noundef %3, i32 noundef %4) #1 {
  %6 = alloca %"struct.arrow::TypedChunkLocation.4", align 4
  %7 = alloca i32, align 4
  %8 = alloca ptr, align 8
  %9 = alloca i32, align 4
  %10 = alloca i32, align 4
  %11 = alloca i32, align 4
  %12 = alloca i64, align 8
  %13 = alloca i32, align 4
  store i32 %0, ptr %7, align 4, !tbaa !8
  store ptr %1, ptr %8, align 8, !tbaa !57
  store i32 %2, ptr %9, align 4, !tbaa !8
  store i32 %3, ptr %10, align 4, !tbaa !8
  store i32 %4, ptr %11, align 4, !tbaa !8
  call void @llvm.lifetime.start.p0(i64 8, ptr %12) #12
  %14 = load i32, ptr %9, align 4, !tbaa !8
  %15 = zext i32 %14 to i64
  store i64 %15, ptr %12, align 8, !tbaa !43
  %16 = load i64, ptr %12, align 8, !tbaa !43
  %17 = load ptr, ptr %8, align 8, !tbaa !57
  %18 = load i32, ptr %11, align 4, !tbaa !8
  %19 = sext i32 %18 to i64
  %20 = getelementptr inbounds i64, ptr %17, i64 %19
  %21 = load i64, ptr %20, align 8, !tbaa !43
  %22 = icmp uge i64 %16, %21
  br i1 %22, label %23, label %37

23:                                               ; preds = %5
  %24 = load i32, ptr %11, align 4, !tbaa !8
  %25 = load i32, ptr %10, align 4, !tbaa !8
  %26 = icmp eq i32 %24, %25
  br i1 %26, label %36, label %27

27:                                               ; preds = %23
  %28 = load i64, ptr %12, align 8, !tbaa !43
  %29 = load ptr, ptr %8, align 8, !tbaa !57
  %30 = load i32, ptr %11, align 4, !tbaa !8
  %31 = add nsw i32 %30, 1
  %32 = sext i32 %31 to i64
  %33 = getelementptr inbounds i64, ptr %29, i64 %32
  %34 = load i64, ptr %33, align 8, !tbaa !43
  %35 = icmp ult i64 %28, %34
  br i1 %35, label %36, label %37

36:                                               ; preds = %27, %23
  br label %43

37:                                               ; preds = %27, %5
  call void @llvm.lifetime.start.p0(i64 4, ptr %13) #12
  %38 = load i64, ptr %12, align 8, !tbaa !43
  %39 = load ptr, ptr %8, align 8, !tbaa !57
  %40 = load i32, ptr %7, align 4, !tbaa !8
  %41 = call noundef i32 @_ZN5arrow13ChunkResolver6BisectEmPKmjj(i64 noundef %38, ptr noundef %39, i32 noundef 0, i32 noundef %40)
  store i32 %41, ptr %13, align 4, !tbaa !8
  %42 = load i32, ptr %13, align 4, !tbaa !8
  store i32 %42, ptr %11, align 4, !tbaa !8
  call void @llvm.lifetime.end.p0(i64 4, ptr %13) #12
  br label %43

43:                                               ; preds = %37, %36
  %44 = load i32, ptr %11, align 4, !tbaa !8
  %45 = load i32, ptr %9, align 4, !tbaa !8
  %46 = load ptr, ptr %8, align 8, !tbaa !57
  %47 = load i32, ptr %11, align 4, !tbaa !8
  %48 = sext i32 %47 to i64
  %49 = getelementptr inbounds i64, ptr %46, i64 %48
  %50 = load i64, ptr %49, align 8, !tbaa !43
  %51 = trunc i64 %50 to i32
  %52 = sub i32 %45, %51
  call void @_ZN5arrow18TypedChunkLocationIjEC1Ejj(ptr noundef nonnull align 4 dereferenceable(8) %6, i32 noundef %44, i32 noundef %52)
  call void @llvm.lifetime.end.p0(i64 8, ptr %12) #12
  %53 = load i64, ptr %6, align 4
  ret i64 %53
}

; Function Attrs: mustprogress nounwind uwtable
define linkonce_odr noundef ptr @_ZNKSt6vectorIlSaIlEE11_M_data_ptrIlEEPT_S4_(ptr noundef nonnull align 8 dereferenceable(24) %0, ptr noundef %1) #0 comdat align 2 {
  %3 = alloca ptr, align 8
  %4 = alloca ptr, align 8
  store ptr %0, ptr %3, align 8, !tbaa !81
  store ptr %1, ptr %4, align 8, !tbaa !57
  %5 = load ptr, ptr %4, align 8, !tbaa !57
  ret ptr %5
}

; Function Attrs: mustprogress uwtable
define internal void @_ZN5arrow12_GLOBAL__N_117ResolveManyInlineIjEEvjPKllPKT_PNS_18TypedChunkLocationIS4_EEi(i32 noundef %0, ptr noundef %1, i64 noundef %2, ptr noundef %3, ptr noundef %4, i32 noundef %5) #3 {
  %7 = alloca i32, align 4
  %8 = alloca ptr, align 8
  %9 = alloca i64, align 8
  %10 = alloca ptr, align 8
  %11 = alloca ptr, align 8
  %12 = alloca i32, align 4
  %13 = alloca ptr, align 8
  %14 = alloca i32, align 4
  %15 = alloca i64, align 8
  %16 = alloca i32, align 4
  %17 = alloca %"struct.arrow::TypedChunkLocation.4", align 4
  store i32 %0, ptr %7, align 4, !tbaa !8
  store ptr %1, ptr %8, align 8, !tbaa !57
  store i64 %2, ptr %9, align 8, !tbaa !43
  store ptr %3, ptr %10, align 8, !tbaa !102
  store ptr %4, ptr %11, align 8, !tbaa !36
  store i32 %5, ptr %12, align 4, !tbaa !8
  call void @llvm.lifetime.start.p0(i64 8, ptr %13) #12
  %18 = load ptr, ptr %8, align 8, !tbaa !57
  store ptr %18, ptr %13, align 8, !tbaa !57
  call void @llvm.lifetime.start.p0(i64 4, ptr %14) #12
  %19 = load i32, ptr %7, align 4, !tbaa !8
  %20 = sub i32 %19, 1
  store i32 %20, ptr %14, align 4, !tbaa !8
  call void @llvm.lifetime.start.p0(i64 8, ptr %15) #12
  store i64 0, ptr %15, align 8, !tbaa !43
  br label %21

21:                                               ; preds = %42, %6
  %22 = load i64, ptr %15, align 8, !tbaa !43
  %23 = load i64, ptr %9, align 8, !tbaa !43
  %24 = icmp slt i64 %22, %23
  br i1 %24, label %26, label %25

25:                                               ; preds = %21
  call void @llvm.lifetime.end.p0(i64 8, ptr %15) #12
  br label %45

26:                                               ; preds = %21
  call void @llvm.lifetime.start.p0(i64 4, ptr %16) #12
  %27 = load ptr, ptr %10, align 8, !tbaa !102
  %28 = load i64, ptr %15, align 8, !tbaa !43
  %29 = getelementptr inbounds i32, ptr %27, i64 %28
  %30 = load i32, ptr %29, align 4, !tbaa !8
  store i32 %30, ptr %16, align 4, !tbaa !8
  call void @llvm.lifetime.start.p0(i64 8, ptr %17) #12
  %31 = load i32, ptr %7, align 4, !tbaa !8
  %32 = load ptr, ptr %13, align 8, !tbaa !57
  %33 = load i32, ptr %16, align 4, !tbaa !8
  %34 = load i32, ptr %14, align 4, !tbaa !8
  %35 = load i32, ptr %12, align 4, !tbaa !8
  %36 = call i64 @_ZN5arrow12_GLOBAL__N_116ResolveOneInlineIjEENS_18TypedChunkLocationIT_EEjPKmS3_ii(i32 noundef %31, ptr noundef %32, i32 noundef %33, i32 noundef %34, i32 noundef %35)
  store i64 %36, ptr %17, align 4
  %37 = load ptr, ptr %11, align 8, !tbaa !36
  %38 = load i64, ptr %15, align 8, !tbaa !43
  %39 = getelementptr inbounds %"struct.arrow::TypedChunkLocation.4", ptr %37, i64 %38
  call void @llvm.memcpy.p0.p0.i64(ptr align 4 %39, ptr align 4 %17, i64 8, i1 false), !tbaa.struct !104
  %40 = getelementptr inbounds nuw %"struct.arrow::TypedChunkLocation.4", ptr %17, i32 0, i32 0
  %41 = load i32, ptr %40, align 4, !tbaa !38
  store i32 %41, ptr %12, align 4, !tbaa !8
  call void @llvm.lifetime.end.p0(i64 8, ptr %17) #12
  call void @llvm.lifetime.end.p0(i64 4, ptr %16) #12
  br label %42

42:                                               ; preds = %26
  %43 = load i64, ptr %15, align 8, !tbaa !43
  %44 = add nsw i64 %43, 1
  store i64 %44, ptr %15, align 8, !tbaa !43
  br label %21, !llvm.loop !105

45:                                               ; preds = %25
  call void @llvm.lifetime.end.p0(i64 4, ptr %14) #12
  call void @llvm.lifetime.end.p0(i64 8, ptr %13) #12
  ret void
}

; Function Attrs: mustprogress nounwind uwtable
define linkonce_odr noundef ptr @_ZNKSt6vectorIlSaIlEE4dataEv(ptr noundef nonnull align 8 dereferenceable(24) %0) #0 comdat align 2 {
  %2 = alloca ptr, align 8
  store ptr %0, ptr %2, align 8, !tbaa !81
  %3 = load ptr, ptr %2, align 8
  %4 = getelementptr inbounds nuw %"struct.std::_Vector_base", ptr %3, i32 0, i32 0
  %5 = getelementptr inbounds nuw %"struct.std::_Vector_base<long, std::allocator<long>>::_Vector_impl_data", ptr %4, i32 0, i32 0
  %6 = load ptr, ptr %5, align 8, !tbaa !89
  %7 = call noundef ptr @_ZNKSt6vectorIlSaIlEE11_M_data_ptrIlEEPT_S4_(ptr noundef nonnull align 8 dereferenceable(24) %3, ptr noundef %6) #12
  ret ptr %7
}

; Function Attrs: mustprogress nounwind uwtable
define linkonce_odr noundef i64 @_ZNKSt6vectorIlSaIlEE4sizeEv(ptr noundef nonnull align 8 dereferenceable(24) %0) #0 comdat align 2 {
  %2 = alloca ptr, align 8
  store ptr %0, ptr %2, align 8, !tbaa !81
  %3 = load ptr, ptr %2, align 8
  %4 = getelementptr inbounds nuw %"struct.std::_Vector_base", ptr %3, i32 0, i32 0
  %5 = getelementptr inbounds nuw %"struct.std::_Vector_base<long, std::allocator<long>>::_Vector_impl_data", ptr %4, i32 0, i32 1
  %6 = load ptr, ptr %5, align 8, !tbaa !91
  %7 = getelementptr inbounds nuw %"struct.std::_Vector_base", ptr %3, i32 0, i32 0
  %8 = getelementptr inbounds nuw %"struct.std::_Vector_base<long, std::allocator<long>>::_Vector_impl_data", ptr %7, i32 0, i32 0
  %9 = load ptr, ptr %8, align 8, !tbaa !89
  %10 = ptrtoint ptr %6 to i64
  %11 = ptrtoint ptr %9 to i64
  %12 = sub i64 %10, %11
  %13 = sdiv exact i64 %12, 8
  ret i64 %13
}

; Function Attrs: mustprogress uwtable
define void @_ZNK5arrow13ChunkResolver15ResolveManyImplElPKjPNS_18TypedChunkLocationIjEEi(ptr noundef nonnull align 8 dereferenceable(28) %0, i64 noundef %1, ptr noundef %2, ptr noundef %3, i32 noundef %4) #3 align 2 {
  %6 = alloca ptr, align 8
  %7 = alloca i64, align 8
  %8 = alloca ptr, align 8
  %9 = alloca ptr, align 8
  %10 = alloca i32, align 4
  store ptr %0, ptr %6, align 8, !tbaa !53
  store i64 %1, ptr %7, align 8, !tbaa !43
  store ptr %2, ptr %8, align 8, !tbaa !102
  store ptr %3, ptr %9, align 8, !tbaa !36
  store i32 %4, ptr %10, align 4, !tbaa !8
  %11 = load ptr, ptr %6, align 8
  %12 = getelementptr inbounds nuw %"class.arrow::ChunkResolver", ptr %11, i32 0, i32 0
  %13 = call noundef i64 @_ZNKSt6vectorIlSaIlEE4sizeEv(ptr noundef nonnull align 8 dereferenceable(24) %12) #12
  %14 = trunc i64 %13 to i32
  %15 = getelementptr inbounds nuw %"class.arrow::ChunkResolver", ptr %11, i32 0, i32 0
  %16 = call noundef ptr @_ZNKSt6vectorIlSaIlEE4dataEv(ptr noundef nonnull align 8 dereferenceable(24) %15) #12
  %17 = load i64, ptr %7, align 8, !tbaa !43
  %18 = load ptr, ptr %8, align 8, !tbaa !102
  %19 = load ptr, ptr %9, align 8, !tbaa !36
  %20 = load i32, ptr %10, align 4, !tbaa !8
  call void @_ZN5arrow12_GLOBAL__N_117ResolveManyInlineIjEEvjPKllPKT_PNS_18TypedChunkLocationIS4_EEi(i32 noundef %14, ptr noundef %16, i64 noundef %17, ptr noundef %18, ptr noundef %19, i32 noundef %20)
  ret void
}