; Function Attrs: mustprogress uwtable
define void @_ZNK5arrow13ChunkResolver15ResolveManyImplElPKjPNS_18TypedChunkLocationIjEEi(ptr noundef nonnull readonly align 8 captures(none) dereferenceable(28) %0, i64 noundef %1, ptr noundef readonly captures(none) %2, ptr noundef writeonly captures(none) %3, i32 noundef %4) local_unnamed_addr #4 align 2 {
  %6 = alloca %"struct.arrow::TypedChunkLocation.4", align 8
  %7 = getelementptr inbounds nuw i8, ptr %0, i64 8
  %8 = load ptr, ptr %7, align 8, !tbaa !45
  %9 = load ptr, ptr %0, align 8, !tbaa !40
  %10 = ptrtoint ptr %8 to i64
  %11 = ptrtoint ptr %9 to i64
  %12 = sub i64 %10, %11
  %13 = lshr exact i64 %12, 3
  %14 = trunc i64 %13 to i32
  %15 = add i32 %14, -1
  %16 = icmp sgt i64 %1, 0
  br i1 %16, label %.lr.ph.i, label %_ZN5arrow12_GLOBAL__N_117ResolveManyInlineIjEEvjPKllPKT_PNS_18TypedChunkLocationIS4_EEi.exit

.lr.ph.i:                                         ; preds = %5, %_ZN5arrow12_GLOBAL__N_116ResolveOneInlineIjEENS_18TypedChunkLocationIT_EEjPKmS3_ii.exit.i
  %.015.i = phi i32 [ %.sroa.0.0.extract.trunc.i, %_ZN5arrow12_GLOBAL__N_116ResolveOneInlineIjEENS_18TypedChunkLocationIT_EEjPKmS3_ii.exit.i ], [ %4, %5 ]
  %.01314.i = phi i64 [ %42, %_ZN5arrow12_GLOBAL__N_116ResolveOneInlineIjEENS_18TypedChunkLocationIT_EEjPKmS3_ii.exit.i ], [ 0, %5 ]
  %17 = getelementptr inbounds nuw i32, ptr %2, i64 %.01314.i
  %18 = load i32, ptr %17, align 4, !tbaa !107
  call void @llvm.lifetime.start.p0(i64 8, ptr nonnull %6)
  %19 = zext i32 %18 to i64
  %20 = sext i32 %.015.i to i64
  %21 = getelementptr inbounds i64, ptr %9, i64 %20
  %22 = load i64, ptr %21, align 8, !tbaa !44
  %.not.i.i = icmp ugt i64 %22, %19
  br i1 %.not.i.i, label %.preheader, label %23

23:                                               ; preds = %.lr.ph.i
  %24 = icmp eq i32 %.015.i, %15
  br i1 %24, label %_ZN5arrow12_GLOBAL__N_116ResolveOneInlineIjEENS_18TypedChunkLocationIT_EEjPKmS3_ii.exit.i, label %25

25:                                               ; preds = %23
  %26 = getelementptr i8, ptr %21, i64 8
  %27 = load i64, ptr %26, align 8, !tbaa !44
  %28 = icmp ugt i64 %27, %19
  br i1 %28, label %_ZN5arrow12_GLOBAL__N_116ResolveOneInlineIjEENS_18TypedChunkLocationIT_EEjPKmS3_ii.exit.i, label %.preheader

.preheader:                                       ; preds = %25, %.lr.ph.i
  br label %29

29:                                               ; preds = %.preheader, %29
  %.013.i.i.i = phi i32 [ %.114.i.i.i, %29 ], [ %14, %.preheader ]
  %.0.i.i.i = phi i32 [ %.1.i.i.i, %29 ], [ 0, %.preheader ]
  %30 = lshr i32 %.013.i.i.i, 1
  %31 = add i32 %.0.i.i.i, %30
  %32 = zext i32 %31 to i64
  %33 = getelementptr inbounds nuw i64, ptr %9, i64 %32
  %34 = load i64, ptr %33, align 8, !tbaa !44
  %.not.i.i.i = icmp ugt i64 %34, %19
  %35 = sub i32 %.013.i.i.i, %30
  %.114.i.i.i = select i1 %.not.i.i.i, i32 %30, i32 %35
  %.1.i.i.i = select i1 %.not.i.i.i, i32 %.0.i.i.i, i32 %31
  %36 = icmp ugt i32 %.114.i.i.i, 1
  br i1 %36, label %29, label %_ZN5arrow13ChunkResolver6BisectEmPKmjj.exit.loopexit.i.i, !llvm.loop !103

_ZN5arrow13ChunkResolver6BisectEmPKmjj.exit.loopexit.i.i: ; preds = %29
  %.pre.i.i = sext i32 %.1.i.i.i to i64
  %.phi.trans.insert.i.i = getelementptr inbounds i64, ptr %9, i64 %.pre.i.i
  %.pre18.i.i = load i64, ptr %.phi.trans.insert.i.i, align 8, !tbaa !44
  br label %_ZN5arrow12_GLOBAL__N_116ResolveOneInlineIjEENS_18TypedChunkLocationIT_EEjPKmS3_ii.exit.i

_ZN5arrow12_GLOBAL__N_116ResolveOneInlineIjEENS_18TypedChunkLocationIT_EEjPKmS3_ii.exit.i: ; preds = %_ZN5arrow13ChunkResolver6BisectEmPKmjj.exit.loopexit.i.i, %25, %23
  %37 = phi i64 [ %.pre18.i.i, %_ZN5arrow13ChunkResolver6BisectEmPKmjj.exit.loopexit.i.i ], [ %22, %23 ], [ %22, %25 ]
  %.0.i.i = phi i32 [ %.1.i.i.i, %_ZN5arrow13ChunkResolver6BisectEmPKmjj.exit.loopexit.i.i ], [ %15, %23 ], [ %.015.i, %25 ]
  %38 = trunc i64 %37 to i32
  %39 = sub i32 %18, %38
  call void @_ZN5arrow18TypedChunkLocationIjEC1Ejj(ptr noundef nonnull align 4 dereferenceable(8) %6, i32 noundef %.0.i.i, i32 noundef %39)
  %40 = load i64, ptr %6, align 8
  call void @llvm.lifetime.end.p0(i64 8, ptr nonnull %6)
  %.sroa.0.0.extract.trunc.i = trunc i64 %40 to i32
  %.sroa.5.0.extract.shift.i = lshr i64 %40, 32
  %.sroa.5.0.extract.trunc.i = trunc nuw i64 %.sroa.5.0.extract.shift.i to i32
  %41 = getelementptr inbounds nuw %"struct.arrow::TypedChunkLocation.4", ptr %3, i64 %.01314.i
  store i32 %.sroa.0.0.extract.trunc.i, ptr %41, align 4, !tbaa !107
  %.sroa.5.0..sroa_idx.i = getelementptr inbounds nuw i8, ptr %41, i64 4
  store i32 %.sroa.5.0.extract.trunc.i, ptr %.sroa.5.0..sroa_idx.i, align 4, !tbaa !107
  %42 = add nuw nsw i64 %.01314.i, 1
  %exitcond.not.i = icmp eq i64 %42, %1
  br i1 %exitcond.not.i, label %_ZN5arrow12_GLOBAL__N_117ResolveManyInlineIjEEvjPKllPKT_PNS_18TypedChunkLocationIS4_EEi.exit, label %.lr.ph.i, !llvm.loop !108

_ZN5arrow12_GLOBAL__N_117ResolveManyInlineIjEEvjPKllPKT_PNS_18TypedChunkLocationIS4_EEi.exit: ; preds = %_ZN5arrow12_GLOBAL__N_116ResolveOneInlineIjEENS_18TypedChunkLocationIT_EEjPKmS3_ii.exit.i, %5
  ret void
}